Certificate:
    Data:
        Version: 3 (0x2)
        Serial Number: 1 (0x1)
    Signature Algorithm: sha256WithRSAEncryption
        Issuer: C=US, ST=Washington, O=Nintendo of America, Inc., OU=IT, CN=WiiU Device Auth CA 1/emailAddress=ca@noa.nintendo.com
        Validity
            Not Before: Oct 18 18:00:53 2012 GMT
            Not After : Oct 18 18:00:53 2062 GMT
        Subject: C=US, ST=Washington, O=Nintendo of America, Inc., OU=IT, CN=WiiU Device Auth Common 1
        Subject Public Key Info:
            Public Key Algorithm: id-ecPublicKey
                Public-Key: (233 bit)
                pub: 
                    04:00:60:bc:32:7c:74:27:1e:e6:67:b8:0c:0e:3c:
                    e9:ca:5a:cc:62:7e:b2:85:a2:4d:16:79:56:9d:04:
                    66:01:5a:0c:f9:76:fa:80:1b:2e:96:99:3a:f7:01:
                    48:2c:c9:54:52:89:ff:66:7d:2e:74:aa:69:5f:ce:
                    bc
                ASN1 OID: sect233r1
        X509v3 extensions:
            X509v3 Subject Key Identifier: 
                13:3F:70:42:19:E6:2D:F7:F5:3D:A2:35:9B:BE:70:F5:51:FD:80:BB
            X509v3 Authority Key Identifier: 
                keyid:7D:B5:E1:E9:DD:87:BC:11:0E:D4:9D:1D:A8:7E:25:89:C3:B2:A5:45

            X509v3 Basic Constraints: 
                CA:TRUE
    Signature Algorithm: sha256WithRSAEncryption
         8e:9e:2f:8f:34:ae:e8:28:50:c3:85:55:61:2b:b7:b0:62:f1:
         7e:5f:c6:83:03:b1:44:6e:e2:ae:a8:95:59:b2:54:33:94:6e:
         94:14:6e:70:33:b4:24:23:aa:11:ba:8a:c5:c6:e7:fb:32:30:
         83:c7:a9:2e:7a:12:06:c2:7c:d3:42:36:4c:d5:59:57:4a:90:
         4d:47:65:fd:2e:c1:59:87:67:41:ab:c7:b0:e4:be:a1:73:26:
         b9:52:78:46:b8:69:75:4f:cf:b3:6a:6b:b4:98:0e:19:eb:5a:
         8c:6a:0c:be:6c:ee:39:e7:9e:29:1d:75:90:81:8e:de:19:87:
         ae:65:4d:98:99:79:fb:35:09:7b:4c:61:0e:bd:85:3d:e7:71:
         0b:67:18:77:97:ab:d1:34:4c:38:5b:16:27:f8:36:f6:4d:bb:
         7a:14:27:74:14:91:e6:d1:a9:09:dd:25:fd:14:a7:17:59:ca:
         ad:bd:f4:45:97:6b:71:a5:05:6d:81:60:45:b5:dd:e1:38:c4:
         28:53:a7:22:c3:ae:b7:3c:89:9a:6a:36:67:2d:aa:1e:e3:9e:
         3c:52:d8:bc:b0:94:23:ce:90:ef:51:85:30:92:c9:c9:e2:45:
         a4:df:60:1c:33:e3:13:4c:c2:16:d6:ce:11:02:ba:67:5e:38:
         49:9b:f3:14
-----BEGIN CERTIFICATE-----
MIIDCjCCAfKgAwIBAgIBATANBgkqhkiG9w0BAQsFADCBlzELMAkGA1UEBhMCVVMx
EzARBgNVBAgMCldhc2hpbmd0b24xIjAgBgNVBAoMGU5pbnRlbmRvIG9mIEFtZXJp
Y2EsIEluYy4xCzAJBgNVBAsMAklUMR4wHAYDVQQDDBVXaWlVIERldmljZSBBdXRo
IENBIDExIjAgBgkqhkiG9w0BCQEWE2NhQG5vYS5uaW50ZW5kby5jb20wIBcNMTIx
MDE4MTgwMDUzWhgPMjA2MjEwMTgxODAwNTNaMHcxCzAJBgNVBAYTAlVTMRMwEQYD
VQQIEwpXYXNoaW5ndG9uMSIwIAYDVQQKExlOaW50ZW5kbyBvZiBBbWVyaWNhLCBJ
bmMuMQswCQYDVQQLEwJJVDEiMCAGA1UEAxMZV2lpVSBEZXZpY2UgQXV0aCBDb21t
b24gMTBSMBAGByqGSM49AgEGBSuBBAAbAz4ABABgvDJ8dCce5me4DA486cpazGJ+
soWiTRZ5Vp0EZgFaDPl2+oAbLpaZOvcBSCzJVFKJ/2Z9LnSqaV/OvKNQME4wHQYD
VR0OBBYEFBM/cEIZ5i339T2iNZu+cPVR/YC7MB8GA1UdIwQYMBaAFH214endh7wR
DtSdHah+JYnDsqVFMAwGA1UdEwQFMAMBAf8wDQYJKoZIhvcNAQELBQADggEBAI6e
L480rugoUMOFVWErt7Bi8X5fxoMDsURu4q6olVmyVDOUbpQUbnAztCQjqhG6isXG
5/syMIPHqS56EgbCfNNCNkzVWVdKkE1HZf0uwVmHZ0Grx7DkvqFzJrlSeEa4aXVP
z7Nqa7SYDhnrWoxqDL5s7jnnnikddZCBjt4Zh65lTZiZefs1CXtMYQ69hT3ncQtn
GHeXq9E0TDhbFif4NvZNu3oUJ3QUkebRqQndJf0UpxdZyq299EWXa3GlBW2BYEW1
3eE4xChTpyLDrrc8iZpqNmctqh7jnjxS2LywlCPOkO9RhTCSycniRaTfYBwz4xNM
whbWzhECumdeOEmb8xQ=
-----END CERTIFICATE-----
